target datalayout = "e-m:e-p270:32:32-p271:32:32-p272:64:64-i64:64-i128:128-f80:128-n8:16:32:64-S128"
target triple = "x86_64-pc-linux-gnu"

%"class.llvm::SmallVectorBase" = type { ptr, i32, i32 }
%"struct.(anonymous namespace)::MemoryMapParams" = type { i64, i64, i64, i64 }
%"class.std::__cxx11::basic_string" = type { %"struct.std::__cxx11::basic_string<char>::_Alloc_hider", i64, %union.anon }
%"struct.std::__cxx11::basic_string<char>::_Alloc_hider" = type { ptr }
%union.anon = type { i64, [8 x i8] }
%"class.(anonymous namespace)::MemorySanitizer" = type { i8, i32, i8, i8, %"class.llvm::Triple", ptr, ptr, ptr, ptr, ptr, ptr, ptr, ptr, ptr, ptr, ptr, i8, %"class.llvm::FunctionCallee", [4 x %"class.llvm::FunctionCallee"], [4 x %"class.llvm::FunctionCallee"], %"class.llvm::FunctionCallee", %"class.llvm::FunctionCallee", %"class.llvm::FunctionCallee", %"class.llvm::FunctionCallee", %"class.llvm::FunctionCallee", %"class.llvm::FunctionCallee", %"class.llvm::FunctionCallee", %"class.llvm::FunctionCallee", ptr, %"class.llvm::FunctionCallee", %"class.llvm::FunctionCallee", %"class.llvm::FunctionCallee", ptr, %"class.llvm::FunctionCallee", %"class.llvm::FunctionCallee", [4 x %"class.llvm::FunctionCallee"], [4 x %"class.llvm::FunctionCallee"], %"class.llvm::FunctionCallee", ptr, ptr, %"struct.(anonymous namespace)::MemoryMapParams", ptr, ptr }
%"class.llvm::Triple" = type { %"class.std::__cxx11::basic_string", i32, i32, i32, i32, i32, i32 }
%"class.llvm::FunctionCallee" = type { ptr, ptr }
%"class.llvm::Twine" = type <{ %"union.llvm::Twine::Child", %"union.llvm::Twine::Child", i8, i8, [6 x i8] }>
%"union.llvm::Twine::Child" = type { %struct.anon }
%struct.anon = type { ptr, i64 }
%"class.llvm::IRBuilderBase" = type { %"class.llvm::SmallVector.180", ptr, %"class.llvm::ilist_iterator_w_bits", ptr, ptr, ptr, ptr, %"class.llvm::FastMathFlags", i8, i8, i8, %"class.llvm::ArrayRef.187" }
%"class.llvm::SmallVector.180" = type { %"class.llvm::SmallVectorImpl.181", %"struct.llvm::SmallVectorStorage.184" }
%"class.llvm::SmallVectorImpl.181" = type { %"class.llvm::SmallVectorTemplateBase.182" }
%"class.llvm::SmallVectorTemplateBase.182" = type { %"class.llvm::SmallVectorTemplateCommon.183" }
%"class.llvm::SmallVectorTemplateCommon.183" = type { %"class.llvm::SmallVectorBase" }
%"struct.llvm::SmallVectorStorage.184" = type { [32 x i8] }
%"class.llvm::ilist_iterator_w_bits" = type <{ ptr, i8, i8, [6 x i8] }>
%"class.llvm::FastMathFlags" = type { i32 }
%"class.llvm::ArrayRef.187" = type { ptr, i64 }
%"struct.std::pair.199" = type { i32, ptr }
%"struct.(anonymous namespace)::VarArgHelper" = type { ptr }
%"class.llvm::SmallVector.294" = type { %"class.llvm::SmallVectorImpl.295", %"struct.llvm::SmallVectorStorage.298" }
%"class.llvm::SmallVectorImpl.295" = type { %"class.llvm::SmallVectorTemplateBase.296" }
%"class.llvm::SmallVectorTemplateBase.296" = type { %"class.llvm::SmallVectorTemplateCommon.297" }
%"class.llvm::SmallVectorTemplateCommon.297" = type { %"class.llvm::SmallVectorBase" }
%"struct.llvm::SmallVectorStorage.298" = type { [128 x i8] }
%"struct.(anonymous namespace)::VarArgHelperBase" = type <{ %"struct.(anonymous namespace)::VarArgHelper", ptr, ptr, ptr, %"class.llvm::SmallVector.294", i32, [4 x i8] }>
%"class.llvm::InsertPosition" = type { %"class.llvm::ilist_iterator_w_bits" }

@.str.89 = private unnamed_addr constant [1 x i8] zeroinitializer, align 1

; Function Attrs: mustprogress nounwind uwtable
define linkonce_odr hidden noundef ptr @_ZNK4llvm25SmallVectorTemplateCommonISt4pairIjPNS_6MDNodeEEvE3endEv(ptr noundef nonnull align 8 dereferenceable(16) %0) #1 comdat align 2 {
  %2 = alloca ptr, align 8
  store ptr %0, ptr %2, align 8
  %3 = load ptr, ptr %2, align 8
  %4 = call noundef ptr @_ZNK4llvm25SmallVectorTemplateCommonISt4pairIjPNS_6MDNodeEEvE5beginEv(ptr noundef nonnull align 8 dereferenceable(16) %3)
  %5 = call noundef i64 @_ZNK4llvm15SmallVectorBaseIjE4sizeEv(ptr noundef nonnull align 8 dereferenceable(16) %3)
  %6 = getelementptr inbounds %"struct.std::pair.199", ptr %4, i64 %5
  ret ptr %6
}

; Function Attrs: mustprogress nounwind uwtable
define linkonce_odr hidden noundef ptr @_ZNK4llvm25SmallVectorTemplateCommonISt4pairIjPNS_6MDNodeEEvE5beginEv(ptr noundef nonnull align 8 dereferenceable(16) %0) #1 comdat align 2 {
  %2 = alloca ptr, align 8
  store ptr %0, ptr %2, align 8
  %3 = load ptr, ptr %2, align 8
  %4 = getelementptr inbounds nuw %"class.llvm::SmallVectorBase", ptr %3, i32 0, i32 0
  %5 = load ptr, ptr %4, align 8
  ret ptr %5
}

; Function Attrs: mustprogress nounwind uwtable
define linkonce_odr hidden void @_ZNK4llvm13IRBuilderBase17AddMetadataToInstEPNS_11InstructionE(ptr noundef nonnull align 8 dereferenceable(128) %0, ptr noundef %1) #1 comdat align 2 {
  %3 = alloca ptr, align 8
  %4 = alloca ptr, align 8
  %5 = alloca ptr, align 8
  %6 = alloca ptr, align 8
  %7 = alloca ptr, align 8
  %8 = alloca ptr, align 8
  store ptr %0, ptr %3, align 8
  store ptr %1, ptr %4, align 8
  %9 = load ptr, ptr %3, align 8
  %10 = getelementptr inbounds nuw %"class.llvm::IRBuilderBase", ptr %9, i32 0, i32 0
  store ptr %10, ptr %5, align 8
  %11 = load ptr, ptr %5, align 8
  %12 = call noundef ptr @_ZNK4llvm25SmallVectorTemplateCommonISt4pairIjPNS_6MDNodeEEvE5beginEv(ptr noundef nonnull align 8 dereferenceable(16) %11)
  store ptr %12, ptr %6, align 8
  %13 = load ptr, ptr %5, align 8
  %14 = call noundef ptr @_ZNK4llvm25SmallVectorTemplateCommonISt4pairIjPNS_6MDNodeEEvE3endEv(ptr noundef nonnull align 8 dereferenceable(16) %13)
  store ptr %14, ptr %7, align 8
  br label %15

15:                                               ; preds = %28, %2
  %16 = load ptr, ptr %6, align 8
  %17 = load ptr, ptr %7, align 8
  %18 = icmp ne ptr %16, %17
  br i1 %18, label %19, label %31

19:                                               ; preds = %15
  %20 = load ptr, ptr %6, align 8
  store ptr %20, ptr %8, align 8
  %21 = load ptr, ptr %4, align 8
  %22 = load ptr, ptr %8, align 8
  %23 = getelementptr inbounds nuw %"struct.std::pair.199", ptr %22, i32 0, i32 0
  %24 = load i32, ptr %23, align 8
  %25 = load ptr, ptr %8, align 8
  %26 = getelementptr inbounds nuw %"struct.std::pair.199", ptr %25, i32 0, i32 1
  %27 = load ptr, ptr %26, align 8
  call void @_ZN4llvm11Instruction11setMetadataEjPNS_6MDNodeE(ptr noundef nonnull align 8 dereferenceable(72) %21, i32 noundef %24, ptr noundef %27)
  br label %28

28:                                               ; preds = %19
  %29 = load ptr, ptr %6, align 8
  %30 = getelementptr inbounds %"struct.std::pair.199", ptr %29, i32 1
  store ptr %30, ptr %6, align 8
  br label %15

31:                                               ; preds = %15
  ret void
}

; Function Attrs: mustprogress nounwind uwtable
define linkonce_odr hidden void @_ZN4llvm21ilist_iterator_w_bitsINS_12ilist_detail12node_optionsINS_11InstructionELb0ELb0EvLb1ENS_10BasicBlockEEELb0ELb0EEC2Ev(ptr noundef nonnull align 8 dereferenceable(10) %0) unnamed_addr #1 comdat align 2 {
  %2 = alloca ptr, align 8
  store ptr %0, ptr %2, align 8
  %3 = load ptr, ptr %2, align 8
  %4 = getelementptr inbounds nuw %"class.llvm::ilist_iterator_w_bits", ptr %3, i32 0, i32 0
  store ptr null, ptr %4, align 8
  %5 = getelementptr inbounds nuw %"class.llvm::ilist_iterator_w_bits", ptr %3, i32 0, i32 1
  store i8 0, ptr %5, align 8
  %6 = getelementptr inbounds nuw %"class.llvm::ilist_iterator_w_bits", ptr %3, i32 0, i32 2
  store i8 0, ptr %6, align 1
  ret void
}

; Function Attrs: mustprogress nounwind uwtable
define linkonce_odr hidden noundef ptr @_ZNK4llvm13IRBuilderBase6InsertINS_14BinaryOperatorEEEPT_S4_RKNS_5TwineE(ptr noundef nonnull align 8 dereferenceable(128) %0, ptr noundef %1, ptr noundef nonnull align 8 dereferenceable(34) %2) #1 comdat align 2 {
  %4 = alloca ptr, align 8
  %5 = alloca ptr, align 8
  %6 = alloca ptr, align 8
  %7 = alloca %"class.llvm::ilist_iterator_w_bits", align 8
  store ptr %0, ptr %4, align 8
  store ptr %1, ptr %5, align 8
  store ptr %2, ptr %6, align 8
  %8 = load ptr, ptr %4, align 8
  %9 = getelementptr inbounds nuw %"class.llvm::IRBuilderBase", ptr %8, i32 0, i32 5
  %10 = load ptr, ptr %9, align 8
  %11 = load ptr, ptr %5, align 8
  %12 = load ptr, ptr %6, align 8
  %13 = getelementptr inbounds nuw %"class.llvm::IRBuilderBase", ptr %8, i32 0, i32 2
  call void @llvm.memcpy.p0.p0.i64(ptr align 8 %7, ptr align 8 %13, i64 16, i1 false)
  %14 = getelementptr inbounds nuw { ptr, i64 }, ptr %7, i32 0, i32 0
  %15 = load ptr, ptr %14, align 8
  %16 = getelementptr inbounds nuw { ptr, i64 }, ptr %7, i32 0, i32 1
  %17 = load i64, ptr %16, align 8
  %18 = load ptr, ptr %10, align 8
  %19 = getelementptr inbounds ptr, ptr %18, i64 2
  %20 = load ptr, ptr %19, align 8
  call void %20(ptr noundef nonnull align 8 dereferenceable(8) %10, ptr noundef %11, ptr noundef nonnull align 8 dereferenceable(34) %12, ptr %15, i64 %17)
  %21 = load ptr, ptr %5, align 8
  call void @_ZNK4llvm13IRBuilderBase17AddMetadataToInstEPNS_11InstructionE(ptr noundef nonnull align 8 dereferenceable(128) %8, ptr noundef %21)
  %22 = load ptr, ptr %5, align 8
  ret ptr %22
}

; Function Attrs: mustprogress nounwind uwtable
define linkonce_odr hidden void @_ZN4llvm14InsertPositionC2EDn(ptr noundef nonnull align 8 dereferenceable(16) %0, ptr %1) unnamed_addr #1 comdat align 2 {
  %3 = alloca ptr, align 8
  %4 = alloca ptr, align 8
  store ptr %0, ptr %3, align 8
  store ptr %1, ptr %4, align 8
  %5 = load ptr, ptr %3, align 8
  %6 = getelementptr inbounds nuw %"class.llvm::InsertPosition", ptr %5, i32 0, i32 0
  call void @llvm.memset.p0.i64(ptr align 8 %6, i8 0, i64 16, i1 false)
  call void @_ZN4llvm21ilist_iterator_w_bitsINS_12ilist_detail12node_optionsINS_11InstructionELb0ELb0EvLb1ENS_10BasicBlockEEELb0ELb0EEC2Ev(ptr noundef nonnull align 8 dereferenceable(10) %6) #2
  ret void
}

; Function Attrs: mustprogress nounwind uwtable
define linkonce_odr hidden void @_ZN4llvm5TwineC2Ev(ptr noundef nonnull align 8 dereferenceable(34) %0) unnamed_addr #1 comdat align 2 {
  %2 = alloca ptr, align 8
  store ptr %0, ptr %2, align 8
  %3 = load ptr, ptr %2, align 8
  %4 = getelementptr inbounds nuw %"class.llvm::Twine", ptr %3, i32 0, i32 2
  store i8 1, ptr %4, align 8
  %5 = getelementptr inbounds nuw %"class.llvm::Twine", ptr %3, i32 0, i32 3
  store i8 1, ptr %5, align 1
  ret void
}

; Function Attrs: mustprogress nounwind uwtable
define linkonce_odr hidden noundef ptr @_ZN4llvm13IRBuilderBase23CreateInsertNUWNSWBinOpENS_11Instruction9BinaryOpsEPNS_5ValueES4_RKNS_5TwineEbb(ptr noundef nonnull align 8 dereferenceable(128) %0, i32 noundef %1, ptr noundef %2, ptr noundef %3, ptr noundef nonnull align 8 dereferenceable(34) %4, i1 noundef zeroext %5, i1 noundef zeroext %6) #1 comdat align 2 {
  %8 = alloca ptr, align 8
  %9 = alloca i32, align 4
  %10 = alloca ptr, align 8
  %11 = alloca ptr, align 8
  %12 = alloca ptr, align 8
  %13 = alloca i8, align 1
  %14 = alloca i8, align 1
  %15 = alloca ptr, align 8
  %16 = alloca %"class.llvm::Twine", align 8
  %17 = alloca %"class.llvm::InsertPosition", align 8
  store ptr %0, ptr %8, align 8
  store i32 %1, ptr %9, align 4
  store ptr %2, ptr %10, align 8
  store ptr %3, ptr %11, align 8
  store ptr %4, ptr %12, align 8
  %18 = zext i1 %5 to i8
  store i8 %18, ptr %13, align 1
  %19 = zext i1 %6 to i8
  store i8 %19, ptr %14, align 1
  %20 = load ptr, ptr %8, align 8
  %21 = load i32, ptr %9, align 4
  %22 = load ptr, ptr %10, align 8
  %23 = load ptr, ptr %11, align 8
  call void @_ZN4llvm5TwineC2Ev(ptr noundef nonnull align 8 dereferenceable(34) %16)
  call void @_ZN4llvm14InsertPositionC2EDn(ptr noundef nonnull align 8 dereferenceable(16) %17, ptr null)
  %24 = getelementptr inbounds nuw { ptr, i64 }, ptr %17, i32 0, i32 0
  %25 = load ptr, ptr %24, align 8
  %26 = getelementptr inbounds nuw { ptr, i64 }, ptr %17, i32 0, i32 1
  %27 = load i64, ptr %26, align 8
  %28 = call noundef ptr @_ZN4llvm14BinaryOperator6CreateENS_11Instruction9BinaryOpsEPNS_5ValueES4_RKNS_5TwineENS_14InsertPositionE(i32 noundef %21, ptr noundef %22, ptr noundef %23, ptr noundef nonnull align 8 dereferenceable(34) %16, ptr %25, i64 %27)
  %29 = load ptr, ptr %12, align 8
  %30 = call noundef ptr @_ZNK4llvm13IRBuilderBase6InsertINS_14BinaryOperatorEEEPT_S4_RKNS_5TwineE(ptr noundef nonnull align 8 dereferenceable(128) %20, ptr noundef %28, ptr noundef nonnull align 8 dereferenceable(34) %29)
  store ptr %30, ptr %15, align 8
  %31 = load i8, ptr %13, align 1
  %32 = trunc i8 %31 to i1
  br i1 %32, label %33, label %35

33:                                               ; preds = %7
  %34 = load ptr, ptr %15, align 8
  call void @_ZN4llvm11Instruction20setHasNoUnsignedWrapEb(ptr noundef nonnull align 8 dereferenceable(72) %34, i1 noundef zeroext true)
  br label %35

35:                                               ; preds = %33, %7
  %36 = load i8, ptr %14, align 1
  %37 = trunc i8 %36 to i1
  br i1 %37, label %38, label %40

38:                                               ; preds = %35
  %39 = load ptr, ptr %15, align 8
  call void @_ZN4llvm11Instruction18setHasNoSignedWrapEb(ptr noundef nonnull align 8 dereferenceable(72) %39, i1 noundef zeroext true)
  br label %40

40:                                               ; preds = %38, %35
  %41 = load ptr, ptr %15, align 8
  ret ptr %41
}

; Function Attrs: mustprogress nounwind uwtable
define linkonce_odr hidden noundef ptr @_ZN4llvm13IRBuilderBase9CreateAddEPNS_5ValueES2_RKNS_5TwineEbb(ptr noundef nonnull align 8 dereferenceable(128) %0, ptr noundef %1, ptr noundef %2, ptr noundef nonnull align 8 dereferenceable(34) %3, i1 noundef zeroext %4, i1 noundef zeroext %5) #1 comdat align 2 {
  %7 = alloca ptr, align 8
  %8 = alloca ptr, align 8
  %9 = alloca ptr, align 8
  %10 = alloca ptr, align 8
  %11 = alloca ptr, align 8
  %12 = alloca i8, align 1
  %13 = alloca i8, align 1
  %14 = alloca ptr, align 8
  store ptr %0, ptr %8, align 8
  store ptr %1, ptr %9, align 8
  store ptr %2, ptr %10, align 8
  store ptr %3, ptr %11, align 8
  %15 = zext i1 %4 to i8
  store i8 %15, ptr %12, align 1
  %16 = zext i1 %5 to i8
  store i8 %16, ptr %13, align 1
  %17 = load ptr, ptr %8, align 8
  %18 = getelementptr inbounds nuw %"class.llvm::IRBuilderBase", ptr %17, i32 0, i32 4
  %19 = load ptr, ptr %18, align 8
  %20 = load ptr, ptr %9, align 8
  %21 = load ptr, ptr %10, align 8
  %22 = load i8, ptr %12, align 1
  %23 = trunc i8 %22 to i1
  %24 = load i8, ptr %13, align 1
  %25 = trunc i8 %24 to i1
  %26 = load ptr, ptr %19, align 8
  %27 = getelementptr inbounds ptr, ptr %26, i64 4
  %28 = load ptr, ptr %27, align 8
  %29 = call noundef ptr %28(ptr noundef nonnull align 8 dereferenceable(8) %19, i32 noundef 13, ptr noundef %20, ptr noundef %21, i1 noundef zeroext %23, i1 noundef zeroext %25)
  store ptr %29, ptr %14, align 8
  %30 = load ptr, ptr %14, align 8
  %31 = icmp ne ptr %30, null
  br i1 %31, label %32, label %34

32:                                               ; preds = %6
  %33 = load ptr, ptr %14, align 8
  store ptr %33, ptr %7, align 8
  br label %43

34:                                               ; preds = %6
  %35 = load ptr, ptr %9, align 8
  %36 = load ptr, ptr %10, align 8
  %37 = load ptr, ptr %11, align 8
  %38 = load i8, ptr %12, align 1
  %39 = trunc i8 %38 to i1
  %40 = load i8, ptr %13, align 1
  %41 = trunc i8 %40 to i1
  %42 = call noundef ptr @_ZN4llvm13IRBuilderBase23CreateInsertNUWNSWBinOpENS_11Instruction9BinaryOpsEPNS_5ValueES4_RKNS_5TwineEbb(ptr noundef nonnull align 8 dereferenceable(128) %17, i32 noundef 13, ptr noundef %35, ptr noundef %36, ptr noundef nonnull align 8 dereferenceable(34) %37, i1 noundef zeroext %39, i1 noundef zeroext %41)
  store ptr %42, ptr %7, align 8
  br label %43

43:                                               ; preds = %34, %32
  %44 = load ptr, ptr %7, align 8
  ret ptr %44
}

; Function Attrs: mustprogress nounwind uwtable
define linkonce_odr hidden void @_ZN4llvm5TwineC2EPKc(ptr noundef nonnull align 8 dereferenceable(34) %0, ptr noundef %1) unnamed_addr #1 comdat align 2 {
  %3 = alloca ptr, align 8
  %4 = alloca ptr, align 8
  store ptr %0, ptr %3, align 8
  store ptr %1, ptr %4, align 8
  %5 = load ptr, ptr %3, align 8
  %6 = getelementptr inbounds nuw %"class.llvm::Twine", ptr %5, i32 0, i32 2
  store i8 1, ptr %6, align 8
  %7 = getelementptr inbounds nuw %"class.llvm::Twine", ptr %5, i32 0, i32 3
  store i8 1, ptr %7, align 1
  %8 = load ptr, ptr %4, align 8
  %9 = getelementptr inbounds i8, ptr %8, i64 0
  %10 = load i8, ptr %9, align 1
  %11 = sext i8 %10 to i32
  %12 = icmp ne i32 %11, 0
  br i1 %12, label %13, label %17

13:                                               ; preds = %2
  %14 = load ptr, ptr %4, align 8
  %15 = getelementptr inbounds nuw %"class.llvm::Twine", ptr %5, i32 0, i32 0
  store ptr %14, ptr %15, align 8
  %16 = getelementptr inbounds nuw %"class.llvm::Twine", ptr %5, i32 0, i32 2
  store i8 3, ptr %16, align 8
  br label %19

17:                                               ; preds = %2
  %18 = getelementptr inbounds nuw %"class.llvm::Twine", ptr %5, i32 0, i32 2
  store i8 1, ptr %18, align 8
  br label %19

19:                                               ; preds = %17, %13
  ret void
}

; Function Attrs: mustprogress nounwind uwtable
define internal noundef ptr @_ZN12_GLOBAL__N_116VarArgHelperBase26getShadowAddrForVAArgumentERN4llvm9IRBuilderINS1_14ConstantFolderENS1_24IRBuilderDefaultInserterEEEj(ptr noundef nonnull align 8 dereferenceable(180) %0, ptr noundef nonnull align 8 dereferenceable(144) %1, i32 noundef %2) #1 align 2 {
  %4 = alloca ptr, align 8
  %5 = alloca ptr, align 8
  %6 = alloca i32, align 4
  %7 = alloca ptr, align 8
  %8 = alloca %"class.llvm::Twine", align 8
  %9 = alloca %"class.llvm::Twine", align 8
  store ptr %0, ptr %4, align 8
  store ptr %1, ptr %5, align 8
  store i32 %2, ptr %6, align 4
  %10 = load ptr, ptr %4, align 8
  %11 = load ptr, ptr %5, align 8
  %12 = getelementptr inbounds nuw %"struct.(anonymous namespace)::VarArgHelperBase", ptr %10, i32 0, i32 2
  %13 = load ptr, ptr %12, align 8
  %14 = getelementptr inbounds nuw %"class.(anonymous namespace)::MemorySanitizer", ptr %13, i32 0, i32 13
  %15 = load ptr, ptr %14, align 8
  %16 = getelementptr inbounds nuw %"struct.(anonymous namespace)::VarArgHelperBase", ptr %10, i32 0, i32 2
  %17 = load ptr, ptr %16, align 8
  %18 = getelementptr inbounds nuw %"class.(anonymous namespace)::MemorySanitizer", ptr %17, i32 0, i32 6
  %19 = load ptr, ptr %18, align 8
  call void @_ZN4llvm5TwineC2EPKc(ptr noundef nonnull align 8 dereferenceable(34) %8, ptr noundef @.str.89)
  %20 = call noundef ptr @_ZN4llvm13IRBuilderBase17CreatePointerCastEPNS_5ValueEPNS_4TypeERKNS_5TwineE(ptr noundef nonnull align 8 dereferenceable(128) %11, ptr noundef %15, ptr noundef %19, ptr noundef nonnull align 8 dereferenceable(34) %8)
  store ptr %20, ptr %7, align 8
  %21 = load ptr, ptr %5, align 8
  %22 = load ptr, ptr %7, align 8
  %23 = getelementptr inbounds nuw %"struct.(anonymous namespace)::VarArgHelperBase", ptr %10, i32 0, i32 2
  %24 = load ptr, ptr %23, align 8
  %25 = getelementptr inbounds nuw %"class.(anonymous namespace)::MemorySanitizer", ptr %24, i32 0, i32 6
  %26 = load ptr, ptr %25, align 8
  %27 = load i32, ptr %6, align 4
  %28 = zext i32 %27 to i64
  %29 = call noundef ptr @_ZN4llvm11ConstantInt3getEPNS_4TypeEmb(ptr noundef %26, i64 noundef %28, i1 noundef zeroext false)
  call void @_ZN4llvm5TwineC2EPKc(ptr noundef nonnull align 8 dereferenceable(34) %9, ptr noundef @.str.89)
  %30 = call noundef ptr @_ZN4llvm13IRBuilderBase9CreateAddEPNS_5ValueES2_RKNS_5TwineEbb(ptr noundef nonnull align 8 dereferenceable(128) %21, ptr noundef %22, ptr noundef %29, ptr noundef nonnull align 8 dereferenceable(34) %9, i1 noundef zeroext false, i1 noundef zeroext false)
  ret ptr %30
}